; Function Attrs: nofree norecurse nosync nounwind memory(read, argmem: readwrite, inaccessiblemem: none) uwtable
define hidden void @bn_correct_top(ptr noundef captures(none) %0) local_unnamed_addr #11 {
  %2 = getelementptr inbounds nuw i8, ptr %0, i64 8
  %3 = load i32, ptr %2, align 8, !tbaa !15
  %4 = icmp sgt i32 %3, 0
  br i1 %4, label %5, label %15

5:                                                ; preds = %1
  %6 = load ptr, ptr %0, align 8, !tbaa !13
  %7 = zext nneg i32 %3 to i64
  %8 = getelementptr i64, ptr %6, i64 %7
  br label %9

9:                                                ; preds = %5, %11
  %.pn = phi ptr [ %8, %5 ], [ %.0812, %11 ]
  %.011 = phi i32 [ %3, %5 ], [ %12, %11 ]
  %.0812 = getelementptr i8, ptr %.pn, i64 -8
  %10 = load i64, ptr %.0812, align 8, !tbaa !18
  %.not = icmp eq i64 %10, 0
  br i1 %.not, label %11, label %14

11:                                               ; preds = %9
  %12 = add nsw i32 %.011, -1
  %13 = icmp sgt i32 %.011, 1
  br i1 %13, label %9, label %14, !llvm.loop !20

14:                                               ; preds = %9, %11
  %.0.lcssa = phi i32 [ %.011, %9 ], [ 0, %11 ]
  store i32 %.0.lcssa, ptr %2, align 8, !tbaa !15
  br label %15

15:                                               ; preds = %14, %1
  ret void
}